; Function Attrs: mustprogress uwtable
define dso_local void @_ZNK17cmQtAutoGenerator5InfoT9ConfigKeyB5cxx11ESt17basic_string_viewIcSt11char_traitsIcEE(ptr dead_on_unwind noalias writable sret(%"class.std::__cxx11::basic_string") align 8 %0, ptr nocapture noundef nonnull readonly align 8 dereferenceable(48) %1, i64 %2, ptr %3) local_unnamed_addr #3 align 2 {
  %5 = alloca [3 x %"struct.std::pair.15"], align 8
  %6 = alloca %class.cmAlphaNum, align 8
  %7 = getelementptr inbounds i8, ptr %1, i64 40
  %8 = load ptr, ptr %7, align 8
  %9 = getelementptr inbounds i8, ptr %8, i64 136
  call void @llvm.lifetime.start.p0(i64 72, ptr nonnull %5)
  call void @llvm.lifetime.start.p0(i64 56, ptr nonnull %6)
  store i64 %2, ptr %5, align 8, !alias.scope !154, !noalias !157
  %.sroa.2.0..sroa_idx.i5.i = getelementptr inbounds i8, ptr %5, i64 8
  store ptr %3, ptr %.sroa.2.0..sroa_idx.i5.i, align 8, !alias.scope !154, !noalias !157
  %10 = getelementptr inbounds i8, ptr %5, i64 16
  store ptr null, ptr %10, align 8, !alias.scope !154, !noalias !157
  %11 = getelementptr inbounds i8, ptr %5, i64 24
  store ptr null, ptr %6, align 8, !noalias !157
  %12 = getelementptr inbounds i8, ptr %6, i64 8
  %13 = getelementptr inbounds i8, ptr %6, i64 24
  store i64 1, ptr %12, align 8, !noalias !157
  %14 = getelementptr inbounds i8, ptr %6, i64 16
  store ptr %13, ptr %14, align 8, !noalias !157
  store i8 95, ptr %13, align 8, !noalias !157
  store i64 1, ptr %11, align 8, !alias.scope !160, !noalias !157
  %.sroa.2.0..sroa_idx.i10.i = getelementptr inbounds i8, ptr %5, i64 32
  store ptr %13, ptr %.sroa.2.0..sroa_idx.i10.i, align 8, !alias.scope !160, !noalias !157
  %15 = getelementptr inbounds i8, ptr %5, i64 40
  store ptr null, ptr %15, align 8, !alias.scope !160, !noalias !157
  %16 = getelementptr inbounds i8, ptr %5, i64 48
  %17 = call { i64, ptr } @_ZNKSt7__cxx1112basic_stringIcSt11char_traitsIcESaIcEEcvSt17basic_string_viewIcS2_EEv(ptr noundef nonnull align 8 dereferenceable(32) %9) #21, !noalias !157
  %18 = extractvalue { i64, ptr } %17, 0
  %19 = extractvalue { i64, ptr } %17, 1
  store i64 %18, ptr %16, align 8, !alias.scope !163, !noalias !157
  %.sroa.2.0..sroa_idx.i19.i = getelementptr inbounds i8, ptr %5, i64 56
  store ptr %19, ptr %.sroa.2.0..sroa_idx.i19.i, align 8, !alias.scope !163, !noalias !157
  %20 = getelementptr inbounds i8, ptr %5, i64 64
  store ptr null, ptr %20, align 8, !alias.scope !163, !noalias !157
  call void @_Z10cmCatViewsSt16initializer_listISt4pairISt17basic_string_viewIcSt11char_traitsIcEEPNSt7__cxx1112basic_stringIcS3_SaIcEEEEE(ptr dead_on_unwind writable sret(%"class.std::__cxx11::basic_string") align 8 %0, ptr nonnull %5, i64 3)
  call void @llvm.lifetime.end.p0(i64 72, ptr nonnull %5)
  call void @llvm.lifetime.end.p0(i64 56, ptr nonnull %6)
  ret void
}